target datalayout = "e-m:e-p270:32:32-p271:32:32-p272:64:64-i64:64-i128:128-f80:128-n8:16:32:64-S128"
target triple = "x86_64-pc-linux-gnu"

%struct.cbb_st = type { ptr, ptr, i64, i8, i8, i8 }
%struct.srtp_protection_profile_st = type { ptr, i64 }

; Function Attrs: nounwind uwtable
define internal i32 @ext_srtp_add_clienthello(ptr noundef %0, ptr noundef %1) #0 {
  %3 = alloca i32, align 4
  %4 = alloca ptr, align 8
  %5 = alloca ptr, align 8
  %6 = alloca ptr, align 8
  %7 = alloca i32, align 4
  %8 = alloca i64, align 8
  %9 = alloca %struct.cbb_st, align 8
  %10 = alloca %struct.cbb_st, align 8
  %11 = alloca i64, align 8
  store ptr %0, ptr %4, align 8, !tbaa !69
  store ptr %1, ptr %5, align 8, !tbaa !128
  call void @llvm.lifetime.start.p0(i64 8, ptr %6) #8
  %12 = load ptr, ptr %4, align 8, !tbaa !69
  %13 = call ptr @SSL_get_srtp_profiles(ptr noundef %12)
  store ptr %13, ptr %6, align 8, !tbaa !210
  %14 = load ptr, ptr %6, align 8, !tbaa !210
  %15 = icmp eq ptr %14, null
  br i1 %15, label %16, label %17

16:                                               ; preds = %2
  store i32 1, ptr %3, align 4
  store i32 1, ptr %7, align 4
  br label %66

17:                                               ; preds = %2
  call void @llvm.lifetime.start.p0(i64 8, ptr %8) #8
  %18 = load ptr, ptr %6, align 8, !tbaa !210
  %19 = call i64 @sk_num(ptr noundef %18)
  store i64 %19, ptr %8, align 8, !tbaa !56
  %20 = load i64, ptr %8, align 8, !tbaa !56
  %21 = icmp eq i64 %20, 0
  br i1 %21, label %22, label %23

22:                                               ; preds = %17
  store i32 1, ptr %3, align 4
  store i32 1, ptr %7, align 4
  br label %65

23:                                               ; preds = %17
  call void @llvm.lifetime.start.p0(i64 32, ptr %9) #8
  call void @llvm.lifetime.start.p0(i64 32, ptr %10) #8
  %24 = load ptr, ptr %5, align 8, !tbaa !128
  %25 = call i32 @CBB_add_u16(ptr noundef %24, i16 noundef zeroext 14)
  %26 = icmp ne i32 %25, 0
  br i1 %26, label %27, label %34

27:                                               ; preds = %23
  %28 = load ptr, ptr %5, align 8, !tbaa !128
  %29 = call i32 @CBB_add_u16_length_prefixed(ptr noundef %28, ptr noundef %9)
  %30 = icmp ne i32 %29, 0
  br i1 %30, label %31, label %34

31:                                               ; preds = %27
  %32 = call i32 @CBB_add_u16_length_prefixed(ptr noundef %9, ptr noundef %10)
  %33 = icmp ne i32 %32, 0
  br i1 %33, label %35, label %34

34:                                               ; preds = %31, %27, %23
  store i32 0, ptr %3, align 4
  store i32 1, ptr %7, align 4
  br label %64

35:                                               ; preds = %31
  call void @llvm.lifetime.start.p0(i64 8, ptr %11) #8
  store i64 0, ptr %11, align 8, !tbaa !56
  br label %36

36:                                               ; preds = %51, %35
  %37 = load i64, ptr %11, align 8, !tbaa !56
  %38 = load i64, ptr %8, align 8, !tbaa !56
  %39 = icmp ult i64 %37, %38
  br i1 %39, label %40, label %54

40:                                               ; preds = %36
  %41 = load ptr, ptr %6, align 8, !tbaa !210
  %42 = load i64, ptr %11, align 8, !tbaa !56
  %43 = call ptr @sk_value(ptr noundef %41, i64 noundef %42)
  %44 = getelementptr inbounds nuw %struct.srtp_protection_profile_st, ptr %43, i32 0, i32 1
  %45 = load i64, ptr %44, align 8, !tbaa !211
  %46 = trunc i64 %45 to i16
  %47 = call i32 @CBB_add_u16(ptr noundef %10, i16 noundef zeroext %46)
  %48 = icmp ne i32 %47, 0
  br i1 %48, label %50, label %49

49:                                               ; preds = %40
  store i32 0, ptr %3, align 4
  store i32 1, ptr %7, align 4
  br label %63

50:                                               ; preds = %40
  br label %51

51:                                               ; preds = %50
  %52 = load i64, ptr %11, align 8, !tbaa !56
  %53 = add i64 %52, 1
  store i64 %53, ptr %11, align 8, !tbaa !56
  br label %36, !llvm.loop !213

54:                                               ; preds = %36
  %55 = call i32 @CBB_add_u8(ptr noundef %9, i8 noundef zeroext 0)
  %56 = icmp ne i32 %55, 0
  br i1 %56, label %57, label %61

57:                                               ; preds = %54
  %58 = load ptr, ptr %5, align 8, !tbaa !128
  %59 = call i32 @CBB_flush(ptr noundef %58)
  %60 = icmp ne i32 %59, 0
  br i1 %60, label %62, label %61

61:                                               ; preds = %57, %54
  store i32 0, ptr %3, align 4
  store i32 1, ptr %7, align 4
  br label %63

62:                                               ; preds = %57
  store i32 1, ptr %3, align 4
  store i32 1, ptr %7, align 4
  br label %63

63:                                               ; preds = %62, %61, %49
  call void @llvm.lifetime.end.p0(i64 8, ptr %11) #8
  br label %64

64:                                               ; preds = %63, %34
  call void @llvm.lifetime.end.p0(i64 32, ptr %10) #8
  call void @llvm.lifetime.end.p0(i64 32, ptr %9) #8
  br label %65

65:                                               ; preds = %64, %22
  call void @llvm.lifetime.end.p0(i64 8, ptr %8) #8
  br label %66

66:                                               ; preds = %65, %16
  call void @llvm.lifetime.end.p0(i64 8, ptr %6) #8
  %67 = load i32, ptr %3, align 4
  ret i32 %67
}