; Function Attrs: nounwind uwtable
define internal range(i32 0, 2) i32 @ext_srtp_add_clienthello(ptr noundef %0, ptr noundef %1) #0 {
  %3 = alloca %struct.cbb_st, align 8
  %4 = alloca %struct.cbb_st, align 8
  %5 = tail call ptr @SSL_get_srtp_profiles(ptr noundef %0) #21
  %6 = icmp eq ptr %5, null
  br i1 %6, label %27, label %7

7:                                                ; preds = %2
  %8 = tail call i64 @sk_num(ptr noundef nonnull %5) #21
  %9 = icmp eq i64 %8, 0
  br i1 %9, label %27, label %10

10:                                               ; preds = %7
  call void @llvm.lifetime.start.p0(i64 32, ptr nonnull %3) #21
  call void @llvm.lifetime.start.p0(i64 32, ptr nonnull %4) #21
  %11 = tail call i32 @CBB_add_u16(ptr noundef %1, i16 noundef zeroext 14) #21
  %.not = icmp eq i32 %11, 0
  br i1 %.not, label %.loopexit, label %12

12:                                               ; preds = %10
  %13 = call i32 @CBB_add_u16_length_prefixed(ptr noundef %1, ptr noundef nonnull %3) #21
  %.not15 = icmp eq i32 %13, 0
  br i1 %.not15, label %.loopexit, label %14

14:                                               ; preds = %12
  %15 = call i32 @CBB_add_u16_length_prefixed(ptr noundef nonnull %3, ptr noundef nonnull %4) #21
  %.not16 = icmp eq i32 %15, 0
  br i1 %.not16, label %.loopexit, label %.preheader

16:                                               ; preds = %.preheader
  %17 = add nuw i64 %.020, 1
  %exitcond.not = icmp eq i64 %17, %8
  br i1 %exitcond.not, label %23, label %.preheader, !llvm.loop !179

.preheader:                                       ; preds = %14, %16
  %.020 = phi i64 [ %17, %16 ], [ 0, %14 ]
  %18 = call ptr @sk_value(ptr noundef nonnull %5, i64 noundef %.020) #21
  %19 = getelementptr inbounds nuw i8, ptr %18, i64 8
  %20 = load i64, ptr %19, align 8, !tbaa !180
  %21 = trunc i64 %20 to i16
  %22 = call i32 @CBB_add_u16(ptr noundef nonnull %4, i16 noundef zeroext %21) #21
  %.not19 = icmp eq i32 %22, 0
  br i1 %.not19, label %.loopexit, label %16

23:                                               ; preds = %16
  %24 = call i32 @CBB_add_u8(ptr noundef nonnull %3, i8 noundef zeroext 0) #21
  %.not17 = icmp eq i32 %24, 0
  br i1 %.not17, label %.loopexit, label %25

25:                                               ; preds = %23
  %26 = call i32 @CBB_flush(ptr noundef %1) #21
  %.not18 = icmp ne i32 %26, 0
  %spec.select = zext i1 %.not18 to i32
  br label %.loopexit

.loopexit:                                        ; preds = %.preheader, %25, %23, %10, %12, %14
  %.2 = phi i32 [ 0, %14 ], [ 0, %12 ], [ 0, %10 ], [ 0, %23 ], [ %spec.select, %25 ], [ 0, %.preheader ]
  call void @llvm.lifetime.end.p0(i64 32, ptr nonnull %4) #21
  call void @llvm.lifetime.end.p0(i64 32, ptr nonnull %3) #21
  br label %27

27:                                               ; preds = %.loopexit, %7, %2
  %.012 = phi i32 [ 1, %2 ], [ %.2, %.loopexit ], [ 1, %7 ]
  ret i32 %.012
}